(dp0
S'high'
p1
(c__builtin__
set
p2
((lp3
cnumpy.core.multiarray
scalar
p4
(cnumpy
dtype
p5
(S'S10'
p6
I0
I1
tp7
Rp8
(I3
S'|'
p9
NNNI10
I1
I0
tp10
bS'PMC3155019'
p11
tp12
Rp13
ag4
(g5
(S'S10'
p14
I0
I1
tp15
Rp16
(I3
S'|'
p17
NNNI10
I1
I0
tp18
bS'PMC3392545'
p19
tp20
Rp21
ag4
(g5
(S'S10'
p22
I0
I1
tp23
Rp24
(I3
S'|'
p25
NNNI10
I1
I0
tp26
bS'PMC2063868'
p27
tp28
Rp29
ag4
(g5
(S'S9'
p30
I0
I1
tp31
Rp32
(I3
S'|'
p33
NNNI9
I1
I0
tp34
bS'PMC534114'
p35
tp36
Rp37
ag4
(g5
(S'S10'
p38
I0
I1
tp39
Rp40
(I3
S'|'
p41
NNNI10
I1
I0
tp42
bS'PMC2978746'
p43
tp44
Rp45
ag4
(g5
(S'S10'
p46
I0
I1
tp47
Rp48
(I3
S'|'
p49
NNNI10
I1
I0
tp50
bS'PMC2193139'
p51
tp52
Rp53
ag4
(g5
(S'S10'
p54
I0
I1
tp55
Rp56
(I3
S'|'
p57
NNNI10
I1
I0
tp58
bS'PMC3190874'
p59
tp60
Rp61
atp62
Rp63
g2
((lp64
S'PMC3203906'
p65
aS'PMC2193052'
p66
aS'PMC3233644'
p67
atp68
Rp69
tp70
sS'low'
p71
(g2
((lp72
g4
(g5
(S'S10'
p73
I0
I1
tp74
Rp75
(I3
S'|'
p76
NNNI10
I1
I0
tp77
bS'PMC2064697'
p78
tp79
Rp80
ag4
(g5
(S'S10'
p81
I0
I1
tp82
Rp83
(I3
S'|'
p84
NNNI10
I1
I0
tp85
bS'PMC2156142'
p86
tp87
Rp88
ag4
(g5
(S'S10'
p89
I0
I1
tp90
Rp91
(I3
S'|'
p92
NNNI10
I1
I0
tp93
bS'PMC2139800'
p94
tp95
Rp96
ag4
(g5
(S'S10'
p97
I0
I1
tp98
Rp99
(I3
S'|'
p100
NNNI10
I1
I0
tp101
bS'PMC2173277'
p102
tp103
Rp104
ag4
(g5
(S'S10'
p105
I0
I1
tp106
Rp107
(I3
S'|'
p108
NNNI10
I1
I0
tp109
bS'PMC2671642'
p110
tp111
Rp112
ag4
(g5
(S'S10'
p113
I0
I1
tp114
Rp115
(I3
S'|'
p116
NNNI10
I1
I0
tp117
bS'PMC2861648'
p118
tp119
Rp120
ag4
(g5
(S'S10'
p121
I0
I1
tp122
Rp123
(I3
S'|'
p124
NNNI10
I1
I0
tp125
bS'PMC2364253'
p126
tp127
Rp128
ag4
(g5
(S'S10'
p129
I0
I1
tp130
Rp131
(I3
S'|'
p132
NNNI10
I1
I0
tp133
bS'PMC2212421'
p134
tp135
Rp136
ag4
(g5
(S'S10'
p137
I0
I1
tp138
Rp139
(I3
S'|'
p140
NNNI10
I1
I0
tp141
bS'PMC2195994'
p142
tp143
Rp144
ag4
(g5
(S'S10'
p145
I0
I1
tp146
Rp147
(I3
S'|'
p148
NNNI10
I1
I0
tp149
bS'PMC3182062'
p150
tp151
Rp152
atp153
Rp154
g2
((lp155
S'PMC2132836'
p156
aS'PMC2817493'
p157
aS'PMC113262'
p158
aS'PMC2172498'
p159
aS'PMC2743561'
p160
atp161
Rp162
tp163
sS'mid'
p164
(g2
((lp165
g4
(g5
(S'S10'
p166
I0
I1
tp167
Rp168
(I3
S'|'
p169
NNNI10
I1
I0
tp170
bS'PMC2504490'
p171
tp172
Rp173
ag4
(g5
(S'S10'
p174
I0
I1
tp175
Rp176
(I3
S'|'
p177
NNNI10
I1
I0
tp178
bS'PMC2196001'
p179
tp180
Rp181
ag4
(g5
(S'S10'
p182
I0
I1
tp183
Rp184
(I3
S'|'
p185
NNNI10
I1
I0
tp186
bS'PMC2852518'
p187
tp188
Rp189
ag4
(g5
(S'S10'
p190
I0
I1
tp191
Rp192
(I3
S'|'
p193
NNNI10
I1
I0
tp194
bS'PMC3242165'
p195
tp196
Rp197
ag4
(g5
(S'S10'
p198
I0
I1
tp199
Rp200
(I3
S'|'
p201
NNNI10
I1
I0
tp202
bS'PMC2172741'
p203
tp204
Rp205
ag4
(g5
(S'S10'
p206
I0
I1
tp207
Rp208
(I3
S'|'
p209
NNNI10
I1
I0
tp210
bS'PMC3973207'
p211
tp212
Rp213
ag4
(g5
(S'S10'
p214
I0
I1
tp215
Rp216
(I3
S'|'
p217
NNNI10
I1
I0
tp218
bS'PMC3032653'
p219
tp220
Rp221
ag4
(g5
(S'S10'
p222
I0
I1
tp223
Rp224
(I3
S'|'
p225
NNNI10
I1
I0
tp226
bS'PMC2034365'
p227
tp228
Rp229
ag4
(g5
(S'S10'
p230
I0
I1
tp231
Rp232
(I3
S'|'
p233
NNNI10
I1
I0
tp234
bS'PMC2792345'
p235
tp236
Rp237
ag4
(g5
(S'S10'
p238
I0
I1
tp239
Rp240
(I3
S'|'
p241
NNNI10
I1
I0
tp242
bS'PMC3717960'
p243
tp244
Rp245
ag4
(g5
(S'S10'
p246
I0
I1
tp247
Rp248
(I3
S'|'
p249
NNNI10
I1
I0
tp250
bS'PMC2958468'
p251
tp252
Rp253
ag4
(g5
(S'S10'
p254
I0
I1
tp255
Rp256
(I3
S'|'
p257
NNNI10
I1
I0
tp258
bS'PMC3378484'
p259
tp260
Rp261
ag4
(g5
(S'S10'
p262
I0
I1
tp263
Rp264
(I3
S'|'
p265
NNNI10
I1
I0
tp266
bS'PMC2773002'
p267
tp268
Rp269
ag4
(g5
(S'S10'
p270
I0
I1
tp271
Rp272
(I3
S'|'
p273
NNNI10
I1
I0
tp274
bS'PMC2575426'
p275
tp276
Rp277
ag4
(g5
(S'S10'
p278
I0
I1
tp279
Rp280
(I3
S'|'
p281
NNNI10
I1
I0
tp282
bS'PMC2413109'
p283
tp284
Rp285
ag4
(g5
(S'S10'
p286
I0
I1
tp287
Rp288
(I3
S'|'
p289
NNNI10
I1
I0
tp290
bS'PMC3398920'
p291
tp292
Rp293
atp294
Rp295
g2
((lp296
S'PMC2259347'
p297
aS'PMC3461631'
p298
aS'PMC3789032'
p299
aS'PMC3058384'
p300
aS'PMC2171832'
p301
aS'PMC420486'
p302
aS'PMC2064233'
p303
aS'PMC2211846'
p304
atp305
Rp306
tp307
s.